; Function Attrs: mustprogress nofree norecurse nosync nounwind willreturn memory(read, inaccessiblemem: none) uwtable
define hidden noundef i64 @_ZNK6Assimp17Q3BSPFileImporter9countDataERKSt6vectorIPNS_5Q3BSP10sQ3BSPFaceESaIS4_EE(ptr noundef nonnull readnone align 8 captures(none) dereferenceable(160) %0, ptr noundef nonnull readonly align 8 captures(none) dereferenceable(24) %1) local_unnamed_addr #11 align 2 {
  %3 = load ptr, ptr %1, align 8
  %4 = getelementptr inbounds nuw i8, ptr %1, i64 8
  %5 = load ptr, ptr %4, align 8
  %.not13 = icmp eq ptr %3, %5
  br i1 %.not13, label %._crit_edge, label %.lr.ph

._crit_edge:                                      ; preds = %14, %2
  %.0.lcssa = phi i64 [ 0, %2 ], [ %.1, %14 ]
  ret i64 %.0.lcssa

.lr.ph:                                           ; preds = %2, %14
  %.015 = phi i64 [ %.1, %14 ], [ 0, %2 ]
  %.sroa.09.014 = phi ptr [ %15, %14 ], [ %3, %2 ]
  %6 = load ptr, ptr %.sroa.09.014, align 8
  %7 = getelementptr inbounds nuw i8, ptr %6, i64 8
  %8 = load i32, ptr %7, align 4
  switch i32 %8, label %14 [
    i32 1, label %9
    i32 3, label %9
  ]

9:                                                ; preds = %.lr.ph, %.lr.ph
  %10 = getelementptr inbounds nuw i8, ptr %6, i64 24
  %11 = load i32, ptr %10, align 4
  %12 = sext i32 %11 to i64
  %13 = add i64 %.015, %12
  br label %14

14:                                               ; preds = %9, %.lr.ph
  %.1 = phi i64 [ %.015, %.lr.ph ], [ %13, %9 ]
  %15 = getelementptr inbounds nuw i8, ptr %.sroa.09.014, i64 8
  %.not = icmp eq ptr %15, %5
  br i1 %.not, label %._crit_edge, label %.lr.ph, !llvm.loop !23
}